target datalayout = "e-m:e-p270:32:32-p271:32:32-p272:64:64-i64:64-i128:128-f80:128-n8:16:32:64-S128"
target triple = "x86_64-unknown-linux-gnu"

%"class.sat::literal" = type { i32 }
%class.symbol = type { ptr }
%"class.q::mbqi" = type { ptr, ptr, ptr, %"struct.q::mbqi::stats", %"class.q::model_fixer", %class.ref, %"struct.sat::no_drat_params", %class.ref.12, %class.scoped_ptr_vector.13, %class.scoped_ptr_vector.16, %class.obj_map.19, i32, i32, i32, i32, i32, i32, %class.vector.24, %class.vector.25 }
%"struct.q::mbqi::stats" = type { i32, i32 }
%"class.q::model_fixer" = type { %class.quantifier2macro_infos, ptr, ptr, ptr, %class.obj_map, %class.func_decl_dependencies, %class.obj_map.5, %class.map, %class.scoped_ptr_vector }
%class.quantifier2macro_infos = type { ptr }
%class.obj_map = type { %class.core_hashtable }
%class.core_hashtable = type <{ ptr, i32, i32, i32, [4 x i8] }>
%class.func_decl_dependencies = type { ptr, %class.obj_map.0 }
%class.obj_map.0 = type { %class.core_hashtable.1 }
%class.core_hashtable.1 = type <{ ptr, i32, i32, i32, [4 x i8] }>
%class.obj_map.5 = type { %class.core_hashtable.6 }
%class.core_hashtable.6 = type <{ ptr, i32, i32, i32, [4 x i8] }>
%class.map = type { %class.table2map }
%class.table2map = type { %class.core_hashtable.10 }
%class.core_hashtable.10 = type <{ ptr, i32, i32, i32, [4 x i8] }>
%class.scoped_ptr_vector = type { %class.ptr_vector }
%class.ptr_vector = type { %class.vector }
%class.vector = type { ptr }
%class.ref = type { ptr }
%"struct.sat::no_drat_params" = type { %class.params_ref }
%class.params_ref = type { ptr }
%class.ref.12 = type { ptr }
%class.scoped_ptr_vector.13 = type { %class.ptr_vector.14 }
%class.ptr_vector.14 = type { %class.vector.15 }
%class.vector.15 = type { ptr }
%class.scoped_ptr_vector.16 = type { %class.ptr_vector.17 }
%class.ptr_vector.17 = type { %class.vector.18 }
%class.vector.18 = type { ptr }
%class.obj_map.19 = type { %class.core_hashtable.20 }
%class.core_hashtable.20 = type <{ ptr, i32, i32, i32, [4 x i8] }>
%class.vector.24 = type { ptr }
%class.vector.25 = type { ptr }
%"class.sat::extension" = type { ptr, i8, i32, %class.symbol, ptr }
%"class.euf::th_decompile" = type { ptr }
%"class.euf::th_internalizer" = type { ptr, %class.ptr_vector.26, %class.svector }
%class.ptr_vector.26 = type { %class.vector.27 }
%class.vector.27 = type { ptr }
%class.svector = type { %class.vector.28 }
%class.vector.28 = type { ptr }
%class.svector.33 = type { %class.vector.34 }
%class.vector.34 = type { ptr }
%class.arith_util = type { ptr, ptr }
%class.ptr_vector.57 = type { %class.vector.58 }
%class.vector.58 = type { ptr }
%class.region = type { ptr, ptr, ptr, ptr, ptr }
%class.svector.184 = type { %class.vector.185 }
%class.vector.185 = type { ptr }
%class.obj_hashtable = type { %class.core_hashtable.base.100, [4 x i8] }
%class.core_hashtable.base.100 = type <{ ptr, i32, i32, i32 }>
%class.svector.212 = type { %class.vector.213 }
%class.vector.213 = type { ptr }
%class.vector.43 = type { ptr }
%class.svector.90 = type { %class.vector.91 }
%class.vector.91 = type { ptr }
%class.ptr_vector.86 = type { %class.vector.87 }
%class.vector.87 = type { ptr }
%class.svector.88 = type { %class.vector.89 }
%class.vector.89 = type { ptr }
%class.svector.92 = type { %class.vector.93 }
%class.vector.93 = type { ptr }
%class.ref_vector = type { %class.ref_vector_core }
%class.ref_vector_core = type { %class.ref_manager_wrapper, %class.ptr_vector.57 }
%class.ref_manager_wrapper = type { ptr }
%struct.qi_params = type { %"class.std::__cxx11::basic_string", %"class.std::__cxx11::basic_string", double, double, i32, i32, i8, i32, i32, i8, i8, i32, i8, i8, i8, i8, i32, i32, i32, i8, i32, ptr }
%"class.std::__cxx11::basic_string" = type { %"struct.std::__cxx11::basic_string<char>::_Alloc_hider", i64, %union.anon }
%"struct.std::__cxx11::basic_string<char>::_Alloc_hider" = type { ptr }
%union.anon = type { i64, [8 x i8] }
%"class.euf::solver" = type { %"class.sat::extension", %"class.euf::th_internalizer", %"class.euf::th_decompile", %"struct.sat::clause_eh", %"class.std::function", %"class.std::function.29", ptr, ptr, %"class.euf::relevancy", %struct.smt_params, %"struct.euf::solver::local_search_config", %"class.euf::egraph", %class.trail_stack, %"struct.euf::solver::stats", %class.th_rewriter, %class.ref_vector.59, ptr, ptr, ptr, %class.scoped_ptr, ptr, ptr, ptr, i32, %"class.std::__cxx11::basic_string", %class.ptr_vector.57, %class.ptr_vector.57, %class.ptr_vector.86, %class.svector.88, %class.svector.90, %class.svector.92, i32, %class.svector.33, %class.svector.94, %class.scoped_ptr_vector.96, %class.ptr_vector.97, ptr, ptr, i8, %class.ast_pp_util, i8, [7 x i8], %"class.euf::smt_proof_checker", %class.svector.92, %class.svector.212, %class.svector.212, %class.svector.212, i32, i32, i32, i32, i32, i32, i32, i32, %class.symbol, %class.symbol, %class.ref_vector, %class.ref_vector, %class.vector.214, %class.ref_vector, %class.obj_map.215, %class.ref, %class.scoped_ptr.220 }
%"struct.sat::clause_eh" = type { ptr }
%"class.std::function" = type { %"class.std::_Function_base", ptr }
%"class.std::_Function_base" = type { %"union.std::_Any_data", ptr }
%"union.std::_Any_data" = type { %"union.std::_Nocopy_types" }
%"union.std::_Nocopy_types" = type { { i64, i64 } }
%"class.std::function.29" = type { %"class.std::_Function_base", ptr }
%"class.euf::relevancy" = type { ptr, i8, %class.svector.31, %class.svector.33, i32, %class.svector.35, %"class.sat::clause_allocator", %class.ptr_vector.41, %class.svector.35, %class.vector.43, i32, %class.svector.44, %class.ptr_vector.26, %class.ptr_vector.26 }
%class.svector.31 = type { %class.vector.32 }
%class.vector.32 = type { ptr }
%"class.sat::clause_allocator" = type { %class.sat_allocator, %class.id_gen }
%class.sat_allocator = type { ptr, i64, %class.ptr_vector.37, ptr, [65 x %class.ptr_vector.39] }
%class.ptr_vector.37 = type { %class.vector.38 }
%class.vector.38 = type { ptr }
%class.ptr_vector.39 = type { %class.vector.40 }
%class.vector.40 = type { ptr }
%class.id_gen = type { i32, %class.svector.33 }
%class.ptr_vector.41 = type { %class.vector.42 }
%class.vector.42 = type { ptr }
%class.svector.35 = type { %class.vector.36 }
%class.vector.36 = type { ptr }
%class.svector.44 = type { %class.vector.45 }
%class.vector.45 = type { ptr }
%struct.smt_params = type { %struct.preprocessor_params.base, %struct.dyn_ack_params, %struct.qi_params, %struct.theory_arith_params.base, i8, %struct.theory_array_params.base, %struct.theory_bv_params, %struct.theory_str_params.base, %struct.theory_seq_params, %struct.theory_pb_params.base, %struct.theory_datatype_params, i8, i8, i8, i8, i8, i8, i32, i8, i32, double, double, i32, i32, i32, i32, i32, i8, i32, i32, i32, i32, i32, i32, i8, i32, i8, i8, i8, i8, i8, %class.symbol, i32, i32, i8, i8, i8, i8, i32, i8, i32, i32, double, i8, double, double, i32, i8, i32, i32, double, i32, i32, i32, i32, i32, double, i8, i8, i8, %class.symbol, i8, i8, i8, i8, i8, i8, i32, i8, i8, i8, i8, i8, i8, i8, i8, i8, double, i8, %class.symbol }
%struct.preprocessor_params.base = type <{ %struct.pattern_inference_params.base, %struct.bit_blaster_params, i32, i32, i8, i8, i8, i8, i8, i8, i8, i8, i8, i8, i8, i8, i8, i8, i8, i8, i8, i8, i8 }>
%struct.pattern_inference_params.base = type <{ i8, [3 x i8], i32, i8, i8, [2 x i8], i32, i8, [3 x i8], i32, i32, i8, [3 x i8], i32, i8, i8 }>
%struct.bit_blaster_params = type { i8, i8 }
%struct.dyn_ack_params = type { i32, i8, double, i32, i32, double }
%struct.theory_arith_params.base = type <{ i8, i8, [2 x i8], i32, i8, [3 x i8], i32, i8, [3 x i8], i32, i8, i8, [2 x i8], i32, i32, i8, i8, [2 x i8], i32, i32, i8, [3 x i8], i32, i32, i8, [3 x i8], double, double, i8, [3 x i8], i32, i8, i8, i8, i8, i8, [3 x i8], i32, i32, i8, [3 x i8], i32, i8, i8, i8, i8, i8, i8, [2 x i8], i32, i8, i8, [2 x i8], i32, i8, [3 x i8], i32, i8, i8, i8 }>
%struct.theory_array_params.base = type <{ i8, i8, [2 x i8], i32, i8, i8, [2 x i8], i32, i8, i8, i8, i8, i32, i8 }>
%struct.theory_bv_params = type { i32, i8, i8, i8, i8, i32, i8, i8, i8, i8, i32 }
%struct.theory_str_params.base = type <{ i8, i8, i8, i8, i8, i8, i8, i8, double, i32, i32, i32, i32, i32, i8, i8 }>
%struct.theory_seq_params = type { i8, i8, i32, i32 }
%struct.theory_pb_params.base = type <{ i32, i8 }>
%struct.theory_datatype_params = type { i32 }
%"struct.euf::solver::local_search_config" = type { double, i32, i32, i32, double }
%"class.euf::egraph" = type { ptr, %class.svector.46, %"class.euf::etable", %class.region, %class.scoped_ptr_vector.52, %class.svector.55, %class.svector.33, %class.ptr_vector.26, ptr, ptr, i32, %class.tmp_app, %class.ptr_vector.26, %class.ref_vector, %class.ref_vector.59, %class.vector.64, %class.ptr_vector.26, i32, i8, ptr, ptr, %"class.euf::justification", i32, %class.svector.67, %class.svector.35, %class.ptr_vector.26, %"struct.euf::egraph::stats", i8, i8, i64, %"class.std::vector", %"class.std::function.72", %"class.std::function.74", %"class.std::function.76", %"class.std::function.78", %"class.std::function.81" }
%class.svector.46 = type { %class.vector.47 }
%class.vector.47 = type { ptr }
%"class.euf::etable" = type { ptr, i8, %class.ptr_vector.39, %class.map.48 }
%class.map.48 = type { %class.table2map.49 }
%class.table2map.49 = type { %class.core_hashtable.50 }
%class.core_hashtable.50 = type <{ ptr, i32, i32, i32, [4 x i8] }>
%class.scoped_ptr_vector.52 = type { %class.ptr_vector.53 }
%class.ptr_vector.53 = type { %class.vector.54 }
%class.vector.54 = type { ptr }
%class.svector.55 = type { %class.vector.56 }
%class.vector.56 = type { ptr }
%class.tmp_app = type { i32, ptr }
%class.vector.64 = type { ptr }
%"class.euf::justification" = type { i32, %union.anon.65, %union.anon.66 }
%union.anon.65 = type { ptr }
%union.anon.66 = type { ptr }
%class.svector.67 = type { %class.vector.68 }
%class.vector.68 = type { ptr }
%"struct.euf::egraph::stats" = type { i32, i32, i32, i32, i32, i32 }
%"class.std::vector" = type { %"struct.std::_Vector_base" }
%"struct.std::_Vector_base" = type { %"struct.std::_Vector_base<std::function<void (euf::enode *, euf::enode *)>, std::allocator<std::function<void (euf::enode *, euf::enode *)>>>::_Vector_impl" }
%"struct.std::_Vector_base<std::function<void (euf::enode *, euf::enode *)>, std::allocator<std::function<void (euf::enode *, euf::enode *)>>>::_Vector_impl" = type { %"struct.std::_Vector_base<std::function<void (euf::enode *, euf::enode *)>, std::allocator<std::function<void (euf::enode *, euf::enode *)>>>::_Vector_impl_data" }
%"struct.std::_Vector_base<std::function<void (euf::enode *, euf::enode *)>, std::allocator<std::function<void (euf::enode *, euf::enode *)>>>::_Vector_impl_data" = type { ptr, ptr, ptr }
%"class.std::function.72" = type { %"class.std::_Function_base", ptr }
%"class.std::function.74" = type { %"class.std::_Function_base", ptr }
%"class.std::function.76" = type { %"class.std::_Function_base", ptr }
%"class.std::function.78" = type { %"class.std::_Function_base", ptr }
%"class.std::function.81" = type { %"class.std::_Function_base", ptr }
%class.trail_stack = type { %class.ptr_vector.84, %class.svector.33, %class.region }
%class.ptr_vector.84 = type { %class.vector.85 }
%class.vector.85 = type { ptr }
%"struct.euf::solver::stats" = type { i32, i32 }
%class.th_rewriter = type { ptr, %class.params_ref }
%class.ref_vector.59 = type { %class.ref_vector_core.60 }
%class.ref_vector_core.60 = type { %class.ref_manager_wrapper.61, %class.ptr_vector.62 }
%class.ref_manager_wrapper.61 = type { ptr }
%class.ptr_vector.62 = type { %class.vector.63 }
%class.vector.63 = type { ptr }
%class.scoped_ptr = type { ptr }
%class.svector.94 = type { %class.vector.95 }
%class.vector.95 = type { ptr }
%class.scoped_ptr_vector.96 = type { %class.ptr_vector.97 }
%class.ptr_vector.97 = type { %class.vector.98 }
%class.vector.98 = type { ptr }
%class.ast_pp_util = type { ptr, %class.obj_hashtable, %class.smt2_pp_environment_dbg, %class.stacked_value, %class.stacked_value, %class.stacked_value, %class.obj_mark, %class.ref_vector, %class.svector.33, %class.decl_collector }
%class.smt2_pp_environment_dbg = type { %class.smt2_pp_environment, ptr, %class.arith_util, %class.bv_util, %class.array_util, %class.fpa_util, %class.seq_util, %"class.datatype::util", %"class.datalog::dl_decl_util" }
%class.smt2_pp_environment = type { ptr, %class.smt_renaming }
%class.smt_renaming = type { %class.map.101, %class.map.105 }
%class.map.101 = type { %class.table2map.102 }
%class.table2map.102 = type { %class.core_hashtable.103 }
%class.core_hashtable.103 = type <{ ptr, i32, i32, i32, [4 x i8] }>
%class.map.105 = type { %class.table2map.106 }
%class.table2map.106 = type { %class.core_hashtable.107 }
%class.core_hashtable.107 = type <{ ptr, i32, i32, i32, [4 x i8] }>
%class.bv_util = type { %class.bv_recognizers, ptr, ptr }
%class.bv_recognizers = type { i32 }
%class.array_util = type { %class.array_recognizers, ptr }
%class.array_recognizers = type { i32 }
%class.fpa_util = type { ptr, ptr, i32, %class.arith_util, %class.bv_util }
%class.seq_util = type { ptr, ptr, ptr, i32, [4 x i8], %"class.seq_util::str", %"class.seq_util::rex" }
%"class.seq_util::str" = type <{ ptr, ptr, i32, [4 x i8] }>
%"class.seq_util::rex" = type { ptr, ptr, i32, %class.vector.109, %class.ref_vector, %"struct.seq_util::rex::info", %"struct.seq_util::rex::info" }
%class.vector.109 = type { ptr }
%"struct.seq_util::rex::info" = type { i32, i8, i32, i32 }
%"class.datatype::util" = type { ptr, i32, ptr, %class.obj_map.110, %class.obj_map.115, %class.obj_map.120, %class.obj_map.125, %class.obj_map.125, %class.obj_map.125, %class.obj_map.130, %class.obj_map.130, %class.obj_map.130, %class.ref_vector.135, %class.ref_vector_core.140, %class.ptr_vector.143, i32, %class.ptr_vector.145 }
%class.obj_map.110 = type { %class.core_hashtable.111 }
%class.core_hashtable.111 = type <{ ptr, i32, i32, i32, [4 x i8] }>
%class.obj_map.115 = type { %class.core_hashtable.116 }
%class.core_hashtable.116 = type <{ ptr, i32, i32, i32, [4 x i8] }>
%class.obj_map.120 = type { %class.core_hashtable.121 }
%class.core_hashtable.121 = type <{ ptr, i32, i32, i32, [4 x i8] }>
%class.obj_map.125 = type { %class.core_hashtable.126 }
%class.core_hashtable.126 = type <{ ptr, i32, i32, i32, [4 x i8] }>
%class.obj_map.130 = type { %class.core_hashtable.131 }
%class.core_hashtable.131 = type <{ ptr, i32, i32, i32, [4 x i8] }>
%class.ref_vector.135 = type { %class.ref_vector_core.136 }
%class.ref_vector_core.136 = type { %class.ref_manager_wrapper.137, %class.ptr_vector.138 }
%class.ref_manager_wrapper.137 = type { ptr }
%class.ptr_vector.138 = type { %class.vector.139 }
%class.vector.139 = type { ptr }
%class.ref_vector_core.140 = type { %class.ptr_vector.141 }
%class.ptr_vector.141 = type { %class.vector.142 }
%class.vector.142 = type { ptr }
%class.ptr_vector.143 = type { %class.vector.144 }
%class.vector.144 = type { ptr }
%class.ptr_vector.145 = type { %class.vector.146 }
%class.vector.146 = type { ptr }
%"class.datalog::dl_decl_util" = type <{ ptr, %class.scoped_ptr.147, %class.scoped_ptr.148, i32, [4 x i8] }>
%class.scoped_ptr.147 = type { ptr }
%class.scoped_ptr.148 = type { ptr }
%class.stacked_value = type { i32, %class.vector.149 }
%class.vector.149 = type { ptr }
%class.obj_mark = type { %struct.default_t2uint, %class.bit_vector }
%struct.default_t2uint = type { i8 }
%class.bit_vector = type { i32, i32, ptr }
%class.decl_collector = type { ptr, %class.lim_svector, %class.lim_svector.151, %class.lim_svector.151, %class.ast_mark, %class.ref_vector.135, %class.svector.33, i32, i32, %"class.datatype::util", %class.array_util, i32, %class.ptr_vector.138 }
%class.lim_svector = type { %class.svector.150, %class.svector.33 }
%class.svector.150 = type { %class.vector.146 }
%class.lim_svector.151 = type { %class.svector.152, %class.svector.33 }
%class.svector.152 = type { %class.vector.63 }
%class.ast_mark = type { ptr, %class.obj_mark, %class.obj_mark.153 }
%class.obj_mark.153 = type { %"struct.ast_mark::decl2uint", %class.bit_vector }
%"struct.ast_mark::decl2uint" = type { i8 }
%"class.euf::smt_proof_checker" = type <{ ptr, %class.params_ref, %"class.euf::theory_checker", %class.scoped_ptr.161, %class.symbol, %"class.sat::solver", %"class.sat::drat", %class.svector.92, %class.svector.92, i8, [7 x i8], %class.map.208, %class.map.208, i32, [4 x i8] }>
%"class.euf::theory_checker" = type { ptr, %class.scoped_ptr_vector.154, %class.map.157 }
%class.scoped_ptr_vector.154 = type { %class.ptr_vector.155 }
%class.ptr_vector.155 = type { %class.vector.156 }
%class.vector.156 = type { ptr }
%class.map.157 = type { %class.table2map.158 }
%class.table2map.158 = type { %class.core_hashtable.159 }
%class.core_hashtable.159 = type <{ ptr, i32, i32, i32, [4 x i8] }>
%class.scoped_ptr.161 = type { ptr }
%"class.sat::solver" = type { %"class.sat::solver_core", i8, [7 x i8], %"struct.sat::config", %"struct.sat::stats", %class.scoped_ptr.162, %class.scoped_ptr.163, ptr, %"class.sat::drat", [2 x %"class.sat::clause_allocator"], i8, %class.random_gen, %"class.sat::cleaner", %class.svector.170, %"class.sat::model_converter", i8, %"class.sat::simplifier", %"class.sat::scc", %"class.sat::asymm_branch", %"class.sat::probing", i8, [7 x i8], %"class.sat::mus", %"class.sat::binspr", i8, i8, [6 x i8], %"class.sat::justification", %"class.sat::literal", %class.ptr_vector.41, %class.ptr_vector.41, i32, %class.svector.33, %class.svector.33, %class.svector.33, %class.svector.33, %class.vector.193, %class.svector.170, %class.svector.194, %class.svector.35, %class.svector.35, %class.svector.35, %class.svector.35, %class.svector.35, %class.svector.33, %class.svector.33, i32, %class.svector.92, %class.svector.33, i32, %class.svector.196, %class.svector.196, %class.svector.196, %class.svector.196, %class.svector.196, i32, double, %class.svector.35, %class.svector.35, %class.svector.35, %class.svector.179, i32, i32, i32, i32, i32, i32, %"struct.sat::backoff", i32, i32, %"struct.sat::backoff", %"struct.sat::backoff", %class.var_queue, i32, i32, i32, %class.ema, %class.ema, %class.ema, %class.ema, %class.ema, %class.svector.92, %class.svector.181, %"class.std::__cxx11::basic_string", i8, %class.visit_helper, %class.svector.198, %class.scoped_limit_trail, %class.stopwatch, %class.params_ref, %"struct.sat::no_drat_params", %class.scoped_ptr.191, %class.svector.92, %"class.sat::literal_set", %"class.sat::literal_set", %class.svector.92, i32, i32, i32, i32, i8, ptr, ptr, %class.statistics, i32, i32, i32, i32, i8, i32, i32, i32, i32, i32, i32, i32, double, i32, double, i8, i8, %class.svector.92, i8, %class.svector.196, i32, i32, i32, %class.svector.92, %class.svector.92, %class.svector.179, %class.svector.33, %class.approx_set_tpl, %class.svector.92, %class.svector.92, %class.vector.43, %class.svector.92, %class.svector.189, %class.u_map, %class.svector.92 }
%"class.sat::solver_core" = type { ptr, ptr }
%"struct.sat::config" = type <{ i64, i32, i32, i32, i8, [3 x i8], i32, i32, double, i32, i8, [3 x i8], i32, i8, [3 x i8], i32, [4 x i8], double, double, i32, i32, double, double, i32, [4 x i8], %class.symbol, double, i32, i32, i8, [3 x i8], i32, i32, i8, [3 x i8], i32, i8, [3 x i8], i32, i8, [3 x i8], i32, i8, i8, i8, i8, i32, i8, i8, i8, i8, i8, i8, i8, i8, i32, i8, i8, i8, i8, i32, double, i32, [4 x i8], double, double, double, double, i32, i8, i8, [2 x i8], double, i8, i8, [2 x i8], i32, double, i32, i32, i32, i32, i32, i32, i32, i32, i8, i8, i8, i8, i32, i32, i8, i8, i8, i8, i8, i8, i8, [5 x i8], %class.symbol, i8, i8, i8, i8, i8, i8, [2 x i8], i32, i32, i32, i8, [3 x i8], double, double, double, double, double, i8, [7 x i8] }>
%"struct.sat::stats" = type { i32, i32, i32, i32, i32, i32, i32, i32, i32, i32, i32, i32, i32, i32, i32, i32, i32, i32, i32, i32, i32 }
%class.scoped_ptr.162 = type { ptr }
%class.scoped_ptr.163 = type { ptr }
%class.random_gen = type { i32 }
%"class.sat::cleaner" = type { ptr, i32, i32, i32, i32 }
%"class.sat::model_converter" = type { %class.vector.172, i32, %class.svector.35, ptr, %class.svector.173 }
%class.vector.172 = type { ptr }
%class.svector.173 = type { %class.vector.174 }
%class.vector.174 = type { ptr }
%"class.sat::simplifier" = type { ptr, i32, %"class.sat::use_list", %"class.sat::ext_use_list", %"class.sat::clause_set", %class.svector.177, i32, %class.tracked_uint_set, i8, %"class.sat::tmp_clause", %class.svector.179, i32, i32, i8, i8, i8, i8, i32, i8, i8, i32, i8, i32, i8, i8, i32, i32, i32, i32, i32, i32, i32, i32, i32, i32, i8, i32, i8, i8, i32, i32, i32, i32, i32, i32, i32, i32, i32, i32, i32, i8, i32, %class.ptr_vector.41, %class.svector.92, %class.svector.181, %class.svector.181, %class.svector.92 }
%"class.sat::use_list" = type { %class.vector.175 }
%class.vector.175 = type { ptr }
%"class.sat::ext_use_list" = type { %class.vector.176 }
%class.vector.176 = type { ptr }
%"class.sat::clause_set" = type { %class.svector.33, %class.ptr_vector.41 }
%class.svector.177 = type { %class.vector.178 }
%class.vector.178 = type { ptr }
%class.tracked_uint_set = type { %class.svector.179, %class.svector.33 }
%"class.sat::tmp_clause" = type { ptr }
%"class.sat::scc" = type { ptr, i8, i8, i32, i32, %"class.sat::big" }
%"class.sat::big" = type { ptr, i32, %class.vector.183, %class.svector.35, %class.svector.184, %class.svector.184, %class.svector.92, %class.svector.92, i8, i8, %class.vector.183 }
%class.vector.183 = type { ptr }
%"class.sat::asymm_branch" = type { ptr, %class.params_ref, i64, %class.random_gen, i32, i32, i8, i32, i32, i8, i8, i64, i32, i32, i32, %class.svector.92, %class.svector.92, %class.svector.186, %class.svector.186, %class.svector.92, %class.svector.92 }
%class.svector.186 = type { %class.vector.187 }
%class.vector.187 = type { ptr }
%"class.sat::probing" = type { ptr, i32, %"class.sat::literal_set", %class.svector.92, i32, i8, i32, i8, i8, i64, i32, %class.vector.188, %class.svector.189, %"class.sat::big" }
%class.vector.188 = type { ptr }
%"class.sat::mus" = type <{ ptr, %class.svector.92, %class.svector.92, i8, [7 x i8], %class.svector.170, i32, [4 x i8] }>
%"class.sat::binspr" = type <{ ptr, %class.scoped_ptr.191, i32, i32, %class.vector.192, i32, i32, %class.svector.35, %class.svector.35, %class.svector.92, %class.svector.92, i32, i32, i32, i32, i32, [4 x i32], [5 x i32], [5 x i32], [4 x i8] }>
%class.vector.192 = type { ptr }
%"class.sat::justification" = type <{ i32, [4 x i8], i64, i32, [4 x i8] }>
%class.vector.193 = type { ptr }
%class.svector.170 = type { %class.vector.171 }
%class.vector.171 = type { ptr }
%class.svector.194 = type { %class.vector.195 }
%class.vector.195 = type { ptr }
%"struct.sat::backoff" = type { i32, i32, i32, i32, i32 }
%class.var_queue = type { %class.heap }
%class.heap = type { %"struct.var_queue<svector<unsigned int>>::lt", %class.svector.184, %class.svector.184 }
%"struct.var_queue<svector<unsigned int>>::lt" = type { ptr }
%class.ema = type { double, double, double, i32, i32 }
%class.svector.181 = type { %class.vector.182 }
%class.vector.182 = type { ptr }
%class.visit_helper = type { %class.svector.33, i32, i32 }
%class.svector.198 = type { %class.vector.199 }
%class.vector.199 = type { ptr }
%class.scoped_limit_trail = type { %class.svector.33, i32, i32 }
%class.stopwatch = type <{ %"class.std::chrono::time_point", %"class.std::chrono::duration", i8, [7 x i8] }>
%"class.std::chrono::time_point" = type { %"class.std::chrono::duration" }
%"class.std::chrono::duration" = type { i64 }
%class.scoped_ptr.191 = type { ptr }
%"class.sat::literal_set" = type { %class.tracked_uint_set }
%class.statistics = type { %class.svector.200, %class.svector.202 }
%class.svector.200 = type { %class.vector.201 }
%class.vector.201 = type { ptr }
%class.svector.202 = type { %class.vector.203 }
%class.vector.203 = type { ptr }
%class.svector.196 = type { %class.vector.197 }
%class.vector.197 = type { ptr }
%class.svector.179 = type { %class.vector.180 }
%class.vector.180 = type { ptr }
%class.approx_set_tpl = type { i32 }
%class.svector.189 = type { %class.vector.190 }
%class.vector.190 = type { ptr }
%class.u_map = type { %class.map.204 }
%class.map.204 = type { %class.table2map.205 }
%class.table2map.205 = type { %class.core_hashtable.206 }
%class.core_hashtable.206 = type <{ ptr, i32, i32, i32, [4 x i8] }>
%"class.sat::drat" = type { ptr, %class.svector.164, ptr, %"class.sat::clause_allocator", ptr, ptr, %class.svector.166, %class.svector.168, %class.vector.43, %class.svector.170, i8, i8, i8, i8, i8, %"struct.sat::drat::stats" }
%class.svector.164 = type { %class.vector.165 }
%class.vector.165 = type { ptr }
%class.svector.166 = type { %class.vector.167 }
%class.vector.167 = type { ptr }
%class.svector.168 = type { %class.vector.169 }
%class.vector.169 = type { ptr }
%"struct.sat::drat::stats" = type { i32, i32, i32, i32 }
%class.map.208 = type { %class.table2map.209 }
%class.table2map.209 = type { %class.core_hashtable.210 }
%class.core_hashtable.210 = type <{ ptr, i32, i32, i32, [4 x i8] }>
%class.vector.214 = type { ptr }
%class.obj_map.215 = type { %class.core_hashtable.216 }
%class.core_hashtable.216 = type <{ ptr, i32, i32, i32, [4 x i8] }>
%class.scoped_ptr.220 = type { ptr }

; Function Attrs: mustprogress nounwind uwtable
define linkonce_odr hidden noundef nonnull align 8 dereferenceable(800) ptr @_ZNK3euf6solver10get_configEv(ptr noundef nonnull align 8 dereferenceable(9136) %this) #4 comdat align 2 {
entry:
  %this.addr = alloca ptr, align 8
  store ptr %this, ptr %this.addr, align 8
  %this1 = load ptr, ptr %this.addr, align 8
  %m_config = getelementptr inbounds %"class.euf::solver", ptr %this1, i32 0, i32 9
  ret ptr %m_config
}

; Function Attrs: mustprogress uwtable
define hidden void @_ZN1q4mbqi11init_searchEv(ptr noundef nonnull align 8 dereferenceable(280) %this) #5 align 2 {
entry:
  %this.addr = alloca ptr, align 8
  store ptr %this, ptr %this.addr, align 8
  %this1 = load ptr, ptr %this.addr, align 8
  %ctx = getelementptr inbounds %"class.q::mbqi", ptr %this1, i32 0, i32 0
  %0 = load ptr, ptr %ctx, align 8
  %call = call noundef nonnull align 8 dereferenceable(800) ptr @_ZNK3euf6solver10get_configEv(ptr noundef nonnull align 8 dereferenceable(9136) %0)
  %add.ptr = getelementptr inbounds i8, ptr %call, i64 104
  %m_mbqi_max_cexs = getelementptr inbounds %struct.qi_params, ptr %add.ptr, i32 0, i32 16
  %1 = load i32, ptr %m_mbqi_max_cexs, align 8
  %m_max_cex = getelementptr inbounds %"class.q::mbqi", ptr %this1, i32 0, i32 11
  store i32 %1, ptr %m_max_cex, align 8
  ret void
}