; Function Attrs: mustprogress nofree norecurse nosync nounwind willreturn memory(read, argmem: readwrite, inaccessiblemem: none) uwtable
define hidden void @_ZN1q4mbqi11init_searchEv(ptr nocapture noundef nonnull align 8 dereferenceable(280) %this) local_unnamed_addr #6 align 2 {
entry:
  %0 = load ptr, ptr %this, align 8
  %m_mbqi_max_cexs = getelementptr inbounds i8, ptr %0, i64 1040
  %1 = load i32, ptr %m_mbqi_max_cexs, align 8
  %m_max_cex = getelementptr inbounds i8, ptr %this, i64 240
  store i32 %1, ptr %m_max_cex, align 8
  ret void
}